target datalayout = "e-m:e-p270:32:32-p271:32:32-p272:64:64-i64:64-i128:128-f80:128-n8:16:32:64-S128"
target triple = "x86_64-pc-linux-gnu"

%struct.AVCodecParserContext = type { ptr, ptr, i64, i64, i64, i32, i32, i64, i64, i64, i64, i32, i32, [4 x i64], [4 x i64], [4 x i64], i32, i64, [4 x i64], i32, i32, i32, i32, [4 x i64], i64, i64, i32, i32, i32, i32, i32, i32, i32, i32, i32 }
%struct.VVCParserContext = type { %struct.ParseContext, ptr, %struct.CodedBitstreamFragment, %struct.AVPacket, %struct.AVPacket, %struct.AuDetector, i32 }
%struct.ParseContext = type { ptr, i32, i32, i32, i32, i32, i32, i32, i64 }
%struct.CodedBitstreamFragment = type { ptr, i64, i64, ptr, i32, i32, ptr }
%struct.AVPacket = type { ptr, i64, i64, ptr, i32, i32, i32, ptr, i32, i64, i64, ptr, ptr, %struct.AVRational }
%struct.AVRational = type { i32, i32 }
%struct.AuDetector = type { i8, i32, i32 }

; Function Attrs: cold nounwind optsize uwtable
define internal void @vvc_parser_close(ptr noundef %0) #0 {
  %2 = alloca ptr, align 8
  %3 = alloca ptr, align 8
  store ptr %0, ptr %2, align 8, !tbaa !4
  call void @llvm.lifetime.start.p0(i64 8, ptr %3) #6
  %4 = load ptr, ptr %2, align 8, !tbaa !4
  %5 = getelementptr inbounds nuw %struct.AVCodecParserContext, ptr %4, i32 0, i32 0
  %6 = load ptr, ptr %5, align 8, !tbaa !9
  store ptr %6, ptr %3, align 8, !tbaa !14
  %7 = load ptr, ptr %3, align 8, !tbaa !14
  %8 = getelementptr inbounds nuw %struct.VVCParserContext, ptr %7, i32 0, i32 3
  call void @av_packet_unref(ptr noundef %8)
  %9 = load ptr, ptr %3, align 8, !tbaa !14
  %10 = getelementptr inbounds nuw %struct.VVCParserContext, ptr %9, i32 0, i32 4
  call void @av_packet_unref(ptr noundef %10)
  %11 = load ptr, ptr %3, align 8, !tbaa !14
  %12 = getelementptr inbounds nuw %struct.VVCParserContext, ptr %11, i32 0, i32 2
  call void @ff_cbs_fragment_free(ptr noundef %12)
  %13 = load ptr, ptr %3, align 8, !tbaa !14
  %14 = getelementptr inbounds nuw %struct.VVCParserContext, ptr %13, i32 0, i32 1
  call void @ff_cbs_close(ptr noundef %14)
  %15 = load ptr, ptr %3, align 8, !tbaa !14
  %16 = getelementptr inbounds nuw %struct.VVCParserContext, ptr %15, i32 0, i32 0
  %17 = getelementptr inbounds nuw %struct.ParseContext, ptr %16, i32 0, i32 0
  call void @av_freep(ptr noundef %17)
  call void @llvm.lifetime.end.p0(i64 8, ptr %3) #6
  ret void
}