; Function Attrs: cold nounwind optsize uwtable
define internal void @vvc_parser_close(ptr noundef readonly captures(none) %0) #0 {
  %2 = load ptr, ptr %0, align 8, !tbaa !4
  %3 = getelementptr inbounds nuw i8, ptr %2, i64 104
  tail call void @av_packet_unref(ptr noundef nonnull %3) #4
  %4 = getelementptr inbounds nuw i8, ptr %2, i64 208
  tail call void @av_packet_unref(ptr noundef nonnull %4) #4
  %5 = getelementptr inbounds nuw i8, ptr %2, i64 56
  tail call void @ff_cbs_fragment_free(ptr noundef nonnull %5) #4
  %6 = getelementptr inbounds nuw i8, ptr %2, i64 48
  tail call void @ff_cbs_close(ptr noundef nonnull %6) #4
  tail call void @av_freep(ptr noundef %2) #4
  ret void
}